; Function Attrs: nounwind sspstrong uwtable
define internal range(i64 1, 1024) i64 @rb_stat_ww(i64 noundef %0) #0 {
  %2 = tail call ptr @rb_check_typeddata(i64 noundef %0, ptr noundef nonnull @stat_data_type) #22
  %3 = getelementptr inbounds nuw i8, ptr %2, i64 144
  %4 = load i8, ptr %3, align 8, !tbaa !28, !range !278, !noundef !279
  %5 = trunc nuw i8 %4 to i1
  br i1 %5, label %get_stat.exit, label %6

6:                                                ; preds = %1
  %7 = load i64, ptr @rb_eTypeError, align 8, !tbaa !12
  tail call void (i64, ptr, ...) @rb_raise(i64 noundef %7, ptr noundef nonnull @.str.147) #24
  unreachable

get_stat.exit:                                    ; preds = %1
  %8 = getelementptr inbounds nuw i8, ptr %2, i64 24
  %9 = load i32, ptr %8, align 8, !tbaa !180
  %10 = and i32 %9, 2
  %.not = icmp eq i32 %10, 0
  %11 = shl i32 %9, 1
  %12 = and i32 %11, 1022
  %13 = or disjoint i32 %12, 1
  %narrow = select i1 %.not, i32 4, i32 %13
  %.0 = zext nneg i32 %narrow to i64
  ret i64 %.0
}